target datalayout = "e-m:e-p270:32:32-p271:32:32-p272:64:64-i64:64-i128:128-f80:128-n8:16:32:64-S128"
target triple = "x86_64-pc-linux-gnu"

%struct.SDL_VideoDevice = type { ptr, ptr, ptr, ptr, ptr, ptr, ptr, ptr, ptr, ptr, ptr, ptr, ptr, ptr, ptr, ptr, ptr, ptr, ptr, ptr, ptr, ptr, ptr, ptr, ptr, ptr, ptr, ptr, ptr, ptr, ptr, ptr, ptr, ptr, ptr, ptr, ptr, ptr, ptr, ptr, ptr, ptr, ptr, ptr, ptr, ptr, ptr, ptr, ptr, ptr, ptr, ptr, ptr, ptr, ptr, ptr, ptr, ptr, ptr, ptr, ptr, ptr, ptr, ptr, ptr, ptr, ptr, ptr, ptr, ptr, ptr, ptr, ptr, ptr, ptr, ptr, ptr, ptr, ptr, ptr, ptr, ptr, ptr, ptr, ptr, ptr, ptr, ptr, ptr, ptr, ptr, ptr, ptr, ptr, ptr, ptr, ptr, i64, i8, i8, i8, ptr, i32, ptr, %struct.SDL_Rect, ptr, ptr, i32, ptr, ptr, ptr, ptr, i64, ptr, i8, i32, i32, %struct.anon, ptr, ptr, ptr, ptr, ptr, ptr, %struct.SDL_AtomicInt, %struct.SDL_AtomicInt, i8, %struct.anon.0, ptr, ptr, ptr, ptr, ptr }
%struct.SDL_Rect = type { i32, i32, i32, i32 }
%struct.anon = type { i32, i32, i32, i32, i32, i32, i32, i32, i32, i32, i32, i32, i32, i32, i32, i32, i32, i32, i32, i32, i32, i32, i32, i32, i32, i32, i32, i32, i32, [256 x i8], ptr }
%struct.SDL_AtomicInt = type { i32 }
%struct.anon.0 = type { ptr, ptr, i32, [256 x i8], ptr }
%struct.SDL_VideoData = type { i8, ptr, i32, ptr, ptr, ptr, ptr, i32, %struct.anon.1, ptr, ptr, ptr, ptr, ptr, ptr, ptr, ptr, ptr, ptr, ptr, ptr, ptr, ptr, ptr, ptr, ptr, ptr, ptr, ptr, ptr, ptr, %struct.wl_list, ptr, ptr, ptr, ptr, i32, i32, i8, i8 }
%struct.anon.1 = type { ptr }
%struct.wl_list = type { ptr, ptr }
%struct.SDL_WindowData = type { ptr, ptr, ptr, ptr, ptr, ptr, ptr, %union.anon, i32, i32, i32, i32, ptr, ptr, ptr, ptr, ptr, ptr, ptr, ptr, ptr, ptr, ptr, ptr, ptr, ptr, %struct.SDL_AtomicInt, ptr, i32, ptr, double, ptr, i32, i32, i32, i32, %struct.anon.14, %struct.anon.15, %struct.anon.16, %struct.anon.17, %struct.anon.18, %struct.anon.19, %struct.anon.20, i32, i32, i32, i64, i32, i32, i8, i8, i8, i8, i8, i8, i8, i8, i8, i8, i8, i8, i8, i8, i32, %struct.wl_list }
%union.anon = type { %struct.anon.10 }
%struct.anon.10 = type { ptr, %union.anon.11, i8 }
%union.anon.11 = type { %struct.anon.13 }
%struct.anon.13 = type { ptr, ptr }
%struct.anon.14 = type { double, double }
%struct.anon.15 = type { i32, i32, i32, i32 }
%struct.anon.16 = type { i32, i32, i32, i32 }
%struct.anon.17 = type { i32, i32 }
%struct.anon.18 = type { i32, i32 }
%struct.anon.19 = type { i32, i32 }
%struct.anon.20 = type { i32, i32, i8 }
%struct.SDL_Window = type { i32, ptr, ptr, i32, i32, i32, i32, i32, i32, i32, i32, float, float, i32, i32, i64, i64, float, i8, i8, i32, i32, %struct.SDL_Rect, %struct.SDL_Rect, %struct.SDL_Rect, i8, i8, i8, %struct.SDL_DisplayMode, %struct.SDL_DisplayMode, %struct.SDL_HDROutputProperties, float, ptr, i8, i8, i8, i8, i8, i8, i8, i8, i8, i32, i32, i32, i32, %struct.SDL_Rect, i32, i8, %struct.SDL_Rect, i32, %struct.SDL_Rect, ptr, ptr, i32, float, i32, i32, ptr, ptr, ptr, ptr, ptr, ptr, ptr, ptr, ptr }
%struct.SDL_DisplayMode = type { i32, i32, i32, i32, float, float, i32, i32, ptr }
%struct.SDL_HDROutputProperties = type { float, float }

; Function Attrs: nounwind uwtable
define hidden zeroext i1 @Wayland_StartTextInput(ptr noundef %0, ptr noundef %1, i32 noundef %2) #0 {
  %4 = alloca i1, align 1
  %5 = alloca ptr, align 8
  %6 = alloca ptr, align 8
  %7 = alloca i32, align 4
  %8 = alloca ptr, align 8
  %9 = alloca ptr, align 8
  %10 = alloca i32, align 4
  store ptr %0, ptr %5, align 8
  store ptr %1, ptr %6, align 8
  store i32 %2, ptr %7, align 4
  call void @llvm.lifetime.start.p0(i64 8, ptr %8) #7
  %11 = load ptr, ptr %5, align 8
  %12 = getelementptr inbounds nuw %struct.SDL_VideoDevice, ptr %11, i32 0, i32 128
  %13 = load ptr, ptr %12, align 8
  store ptr %13, ptr %8, align 8
  %14 = load ptr, ptr %8, align 8
  %15 = getelementptr inbounds nuw %struct.SDL_VideoData, ptr %14, i32 0, i32 18
  %16 = load ptr, ptr %15, align 8
  %17 = icmp ne ptr %16, null
  br i1 %17, label %18, label %134

18:                                               ; preds = %3
  call void @llvm.lifetime.start.p0(i64 8, ptr %9) #7
  %19 = load ptr, ptr %6, align 8
  %20 = getelementptr inbounds nuw %struct.SDL_Window, ptr %19, i32 0, i32 59
  %21 = load ptr, ptr %20, align 8
  store ptr %21, ptr %9, align 8
  %22 = load ptr, ptr %9, align 8
  %23 = getelementptr inbounds nuw %struct.SDL_WindowData, ptr %22, i32 0, i32 42
  %24 = getelementptr inbounds nuw %struct.anon.20, ptr %23, i32 0, i32 0
  store i32 0, ptr %24, align 8
  %25 = load i32, ptr %7, align 4
  %26 = call i32 @SDL_GetTextInputType(i32 noundef %25)
  switch i32 %26, label %27 [
    i32 0, label %28
    i32 1, label %32
    i32 2, label %36
    i32 3, label %40
    i32 4, label %49
    i32 5, label %58
    i32 6, label %67
    i32 7, label %71
    i32 8, label %80
  ]

27:                                               ; preds = %18
  br label %28

28:                                               ; preds = %18, %27
  %29 = load ptr, ptr %9, align 8
  %30 = getelementptr inbounds nuw %struct.SDL_WindowData, ptr %29, i32 0, i32 42
  %31 = getelementptr inbounds nuw %struct.anon.20, ptr %30, i32 0, i32 1
  store i32 0, ptr %31, align 4
  br label %89

32:                                               ; preds = %18
  %33 = load ptr, ptr %9, align 8
  %34 = getelementptr inbounds nuw %struct.SDL_WindowData, ptr %33, i32 0, i32 42
  %35 = getelementptr inbounds nuw %struct.anon.20, ptr %34, i32 0, i32 1
  store i32 7, ptr %35, align 4
  br label %89

36:                                               ; preds = %18
  %37 = load ptr, ptr %9, align 8
  %38 = getelementptr inbounds nuw %struct.SDL_WindowData, ptr %37, i32 0, i32 42
  %39 = getelementptr inbounds nuw %struct.anon.20, ptr %38, i32 0, i32 1
  store i32 6, ptr %39, align 4
  br label %89

40:                                               ; preds = %18
  %41 = load ptr, ptr %9, align 8
  %42 = getelementptr inbounds nuw %struct.SDL_WindowData, ptr %41, i32 0, i32 42
  %43 = getelementptr inbounds nuw %struct.anon.20, ptr %42, i32 0, i32 1
  store i32 0, ptr %43, align 4
  %44 = load ptr, ptr %9, align 8
  %45 = getelementptr inbounds nuw %struct.SDL_WindowData, ptr %44, i32 0, i32 42
  %46 = getelementptr inbounds nuw %struct.anon.20, ptr %45, i32 0, i32 0
  %47 = load i32, ptr %46, align 8
  %48 = or i32 %47, 128
  store i32 %48, ptr %46, align 8
  br label %89

49:                                               ; preds = %18
  %50 = load ptr, ptr %9, align 8
  %51 = getelementptr inbounds nuw %struct.SDL_WindowData, ptr %50, i32 0, i32 42
  %52 = getelementptr inbounds nuw %struct.anon.20, ptr %51, i32 0, i32 1
  store i32 8, ptr %52, align 4
  %53 = load ptr, ptr %9, align 8
  %54 = getelementptr inbounds nuw %struct.SDL_WindowData, ptr %53, i32 0, i32 42
  %55 = getelementptr inbounds nuw %struct.anon.20, ptr %54, i32 0, i32 0
  %56 = load i32, ptr %55, align 8
  %57 = or i32 %56, 192
  store i32 %57, ptr %55, align 8
  br label %89

58:                                               ; preds = %18
  %59 = load ptr, ptr %9, align 8
  %60 = getelementptr inbounds nuw %struct.SDL_WindowData, ptr %59, i32 0, i32 42
  %61 = getelementptr inbounds nuw %struct.anon.20, ptr %60, i32 0, i32 1
  store i32 8, ptr %61, align 4
  %62 = load ptr, ptr %9, align 8
  %63 = getelementptr inbounds nuw %struct.SDL_WindowData, ptr %62, i32 0, i32 42
  %64 = getelementptr inbounds nuw %struct.anon.20, ptr %63, i32 0, i32 0
  %65 = load i32, ptr %64, align 8
  %66 = or i32 %65, 128
  store i32 %66, ptr %64, align 8
  br label %89

67:                                               ; preds = %18
  %68 = load ptr, ptr %9, align 8
  %69 = getelementptr inbounds nuw %struct.SDL_WindowData, ptr %68, i32 0, i32 42
  %70 = getelementptr inbounds nuw %struct.anon.20, ptr %69, i32 0, i32 1
  store i32 3, ptr %70, align 4
  br label %89

71:                                               ; preds = %18
  %72 = load ptr, ptr %9, align 8
  %73 = getelementptr inbounds nuw %struct.SDL_WindowData, ptr %72, i32 0, i32 42
  %74 = getelementptr inbounds nuw %struct.anon.20, ptr %73, i32 0, i32 1
  store i32 9, ptr %74, align 4
  %75 = load ptr, ptr %9, align 8
  %76 = getelementptr inbounds nuw %struct.SDL_WindowData, ptr %75, i32 0, i32 42
  %77 = getelementptr inbounds nuw %struct.anon.20, ptr %76, i32 0, i32 0
  %78 = load i32, ptr %77, align 8
  %79 = or i32 %78, 192
  store i32 %79, ptr %77, align 8
  br label %89

80:                                               ; preds = %18
  %81 = load ptr, ptr %9, align 8
  %82 = getelementptr inbounds nuw %struct.SDL_WindowData, ptr %81, i32 0, i32 42
  %83 = getelementptr inbounds nuw %struct.anon.20, ptr %82, i32 0, i32 1
  store i32 9, ptr %83, align 4
  %84 = load ptr, ptr %9, align 8
  %85 = getelementptr inbounds nuw %struct.SDL_WindowData, ptr %84, i32 0, i32 42
  %86 = getelementptr inbounds nuw %struct.anon.20, ptr %85, i32 0, i32 0
  %87 = load i32, ptr %86, align 8
  %88 = or i32 %87, 128
  store i32 %88, ptr %86, align 8
  br label %89

89:                                               ; preds = %80, %71, %67, %58, %49, %40, %36, %32, %28
  %90 = load i32, ptr %7, align 4
  %91 = call i32 @SDL_GetTextInputCapitalization(i32 noundef %90)
  switch i32 %91, label %92 [
    i32 0, label %111
    i32 3, label %93
    i32 2, label %99
    i32 1, label %105
  ]

92:                                               ; preds = %89
  br label %111

93:                                               ; preds = %89
  %94 = load ptr, ptr %9, align 8
  %95 = getelementptr inbounds nuw %struct.SDL_WindowData, ptr %94, i32 0, i32 42
  %96 = getelementptr inbounds nuw %struct.anon.20, ptr %95, i32 0, i32 0
  %97 = load i32, ptr %96, align 8
  %98 = or i32 %97, 16
  store i32 %98, ptr %96, align 8
  br label %111

99:                                               ; preds = %89
  %100 = load ptr, ptr %9, align 8
  %101 = getelementptr inbounds nuw %struct.SDL_WindowData, ptr %100, i32 0, i32 42
  %102 = getelementptr inbounds nuw %struct.anon.20, ptr %101, i32 0, i32 0
  %103 = load i32, ptr %102, align 8
  %104 = or i32 %103, 32
  store i32 %104, ptr %102, align 8
  br label %111

105:                                              ; preds = %89
  %106 = load ptr, ptr %9, align 8
  %107 = getelementptr inbounds nuw %struct.SDL_WindowData, ptr %106, i32 0, i32 42
  %108 = getelementptr inbounds nuw %struct.anon.20, ptr %107, i32 0, i32 0
  %109 = load i32, ptr %108, align 8
  %110 = or i32 %109, 4
  store i32 %110, ptr %108, align 8
  br label %111

111:                                              ; preds = %105, %99, %93, %92, %89
  %112 = load i32, ptr %7, align 4
  %113 = call zeroext i1 @SDL_GetTextInputAutocorrect(i32 noundef %112)
  br i1 %113, label %114, label %120

114:                                              ; preds = %111
  %115 = load ptr, ptr %9, align 8
  %116 = getelementptr inbounds nuw %struct.SDL_WindowData, ptr %115, i32 0, i32 42
  %117 = getelementptr inbounds nuw %struct.anon.20, ptr %116, i32 0, i32 0
  %118 = load i32, ptr %117, align 8
  %119 = or i32 %118, 3
  store i32 %119, ptr %117, align 8
  br label %120

120:                                              ; preds = %114, %111
  %121 = load i32, ptr %7, align 4
  %122 = call zeroext i1 @SDL_GetTextInputMultiline(i32 noundef %121)
  br i1 %122, label %123, label %129

123:                                              ; preds = %120
  %124 = load ptr, ptr %9, align 8
  %125 = getelementptr inbounds nuw %struct.SDL_WindowData, ptr %124, i32 0, i32 42
  %126 = getelementptr inbounds nuw %struct.anon.20, ptr %125, i32 0, i32 0
  %127 = load i32, ptr %126, align 8
  %128 = or i32 %127, 512
  store i32 %128, ptr %126, align 8
  br label %129

129:                                              ; preds = %123, %120
  %130 = load ptr, ptr %9, align 8
  %131 = getelementptr inbounds nuw %struct.SDL_WindowData, ptr %130, i32 0, i32 42
  %132 = getelementptr inbounds nuw %struct.anon.20, ptr %131, i32 0, i32 2
  store i8 1, ptr %132, align 8
  %133 = load ptr, ptr %8, align 8
  call void @Wayland_UpdateTextInput(ptr noundef %133)
  store i1 true, ptr %4, align 1
  store i32 1, ptr %10, align 4
  call void @llvm.lifetime.end.p0(i64 8, ptr %9) #7
  br label %135

134:                                              ; preds = %3
  store i1 false, ptr %4, align 1
  store i32 1, ptr %10, align 4
  br label %135

135:                                              ; preds = %134, %129
  call void @llvm.lifetime.end.p0(i64 8, ptr %8) #7
  %136 = load i1, ptr %4, align 1
  ret i1 %136
}