; Function Attrs: nounwind uwtable
define hidden noundef zeroext i1 @Wayland_StartTextInput(ptr noundef readonly captures(none) %0, ptr noundef readonly captures(none) %1, i32 noundef %2) local_unnamed_addr #0 {
  %4 = getelementptr inbounds nuw i8, ptr %0, i64 1656
  %5 = load ptr, ptr %4, align 8
  %6 = getelementptr inbounds nuw i8, ptr %5, i64 144
  %7 = load ptr, ptr %6, align 8
  %.not = icmp ne ptr %7, null
  br i1 %.not, label %8, label %51

8:                                                ; preds = %3
  %9 = getelementptr inbounds nuw i8, ptr %1, i64 392
  %10 = load ptr, ptr %9, align 8
  %11 = getelementptr inbounds nuw i8, ptr %10, i64 352
  store i32 0, ptr %11, align 8
  %12 = tail call i32 @SDL_GetTextInputType(i32 noundef %2) #5
  %13 = getelementptr inbounds nuw i8, ptr %10, i64 356
  switch i32 %12, label %14 [
    i32 8, label %30
    i32 1, label %15
    i32 2, label %16
    i32 3, label %17
    i32 4, label %20
    i32 5, label %23
    i32 6, label %26
    i32 7, label %27
  ]

14:                                               ; preds = %8
  store i32 0, ptr %13, align 4
  br label %33

15:                                               ; preds = %8
  store i32 7, ptr %13, align 4
  br label %33

16:                                               ; preds = %8
  store i32 6, ptr %13, align 4
  br label %33

17:                                               ; preds = %8
  store i32 0, ptr %13, align 4
  %18 = load i32, ptr %11, align 8
  %19 = or i32 %18, 128
  store i32 %19, ptr %11, align 8
  br label %33

20:                                               ; preds = %8
  store i32 8, ptr %13, align 4
  %21 = load i32, ptr %11, align 8
  %22 = or i32 %21, 192
  store i32 %22, ptr %11, align 8
  br label %33

23:                                               ; preds = %8
  store i32 8, ptr %13, align 4
  %24 = load i32, ptr %11, align 8
  %25 = or i32 %24, 128
  store i32 %25, ptr %11, align 8
  br label %33

26:                                               ; preds = %8
  store i32 3, ptr %13, align 4
  br label %33

27:                                               ; preds = %8
  store i32 9, ptr %13, align 4
  %28 = load i32, ptr %11, align 8
  %29 = or i32 %28, 192
  store i32 %29, ptr %11, align 8
  br label %33

30:                                               ; preds = %8
  store i32 9, ptr %13, align 4
  %31 = load i32, ptr %11, align 8
  %32 = or i32 %31, 128
  store i32 %32, ptr %11, align 8
  br label %33

33:                                               ; preds = %30, %27, %26, %23, %20, %17, %16, %15, %14
  %34 = tail call i32 @SDL_GetTextInputCapitalization(i32 noundef %2) #5
  %switch.tableidx = add i32 %34, -1
  %35 = icmp ult i32 %switch.tableidx, 3
  br i1 %35, label %switch.lookup, label %39

switch.lookup:                                    ; preds = %33
  %36 = zext nneg i32 %switch.tableidx to i64
  %switch.gep = getelementptr inbounds nuw [3 x i32], ptr @switch.table.Wayland_StartTextInput, i64 0, i64 %36
  %switch.load = load i32, ptr %switch.gep, align 4
  %37 = load i32, ptr %11, align 8
  %38 = or i32 %37, %switch.load
  store i32 %38, ptr %11, align 8
  br label %39

39:                                               ; preds = %33, %switch.lookup
  %40 = tail call zeroext i1 @SDL_GetTextInputAutocorrect(i32 noundef %2) #5
  br i1 %40, label %41, label %44

41:                                               ; preds = %39
  %42 = load i32, ptr %11, align 8
  %43 = or i32 %42, 3
  store i32 %43, ptr %11, align 8
  br label %44

44:                                               ; preds = %41, %39
  %45 = tail call zeroext i1 @SDL_GetTextInputMultiline(i32 noundef %2) #5
  br i1 %45, label %46, label %49

46:                                               ; preds = %44
  %47 = load i32, ptr %11, align 8
  %48 = or i32 %47, 512
  store i32 %48, ptr %11, align 8
  br label %49

49:                                               ; preds = %46, %44
  %50 = getelementptr inbounds nuw i8, ptr %10, i64 360
  store i8 1, ptr %50, align 8
  tail call void @Wayland_UpdateTextInput(ptr noundef nonnull %5)
  br label %51

51:                                               ; preds = %3, %49
  ret i1 %.not
}